target datalayout = "e-m:e-p270:32:32-p271:32:32-p272:64:64-i64:64-i128:128-f80:128-n8:16:32:64-S128"
target triple = "x86_64-pc-linux-gnu"

%"class.glslang::TInputScanner" = type <{ ptr, i32, [4 x i8], ptr, ptr, i32, [4 x i8], i64, ptr, i32, i32, %"struct.glslang::TSourceLoc", i8, i8, [6 x i8] }>
%"struct.glslang::TSourceLoc" = type { ptr, i32, i32, i32 }

; Function Attrs: mustprogress nounwind uwtable
define linkonce_odr noundef i32 @_ZN7glslang13TInputScanner4peekEv(ptr noundef nonnull align 8 dereferenceable(90) %0) #0 comdat align 2 {
  %2 = alloca i32, align 4
  %3 = alloca ptr, align 8
  %4 = alloca i32, align 4
  %5 = alloca i64, align 8
  store ptr %0, ptr %3, align 8
  %6 = load ptr, ptr %3, align 8
  %7 = getelementptr inbounds %"class.glslang::TInputScanner", ptr %6, i32 0, i32 5
  %8 = load i32, ptr %7, align 8
  %9 = getelementptr inbounds %"class.glslang::TInputScanner", ptr %6, i32 0, i32 1
  %10 = load i32, ptr %9, align 8
  %11 = icmp sge i32 %8, %10
  br i1 %11, label %12, label %14

12:                                               ; preds = %1
  %13 = getelementptr inbounds %"class.glslang::TInputScanner", ptr %6, i32 0, i32 13
  store i8 1, ptr %13, align 1
  store i32 -1, ptr %2, align 4
  br label %48

14:                                               ; preds = %1
  %15 = getelementptr inbounds %"class.glslang::TInputScanner", ptr %6, i32 0, i32 5
  %16 = load i32, ptr %15, align 8
  store i32 %16, ptr %4, align 4
  %17 = getelementptr inbounds %"class.glslang::TInputScanner", ptr %6, i32 0, i32 7
  %18 = load i64, ptr %17, align 8
  store i64 %18, ptr %5, align 8
  br label %19

19:                                               ; preds = %36, %14
  %20 = load i64, ptr %5, align 8
  %21 = getelementptr inbounds %"class.glslang::TInputScanner", ptr %6, i32 0, i32 4
  %22 = load ptr, ptr %21, align 8
  %23 = load i32, ptr %4, align 4
  %24 = sext i32 %23 to i64
  %25 = getelementptr inbounds i64, ptr %22, i64 %24
  %26 = load i64, ptr %25, align 8
  %27 = icmp uge i64 %20, %26
  br i1 %27, label %28, label %37

28:                                               ; preds = %19
  store i64 0, ptr %5, align 8
  %29 = load i32, ptr %4, align 4
  %30 = add nsw i32 %29, 1
  store i32 %30, ptr %4, align 4
  %31 = load i32, ptr %4, align 4
  %32 = getelementptr inbounds %"class.glslang::TInputScanner", ptr %6, i32 0, i32 1
  %33 = load i32, ptr %32, align 8
  %34 = icmp sge i32 %31, %33
  br i1 %34, label %35, label %36

35:                                               ; preds = %28
  store i32 -1, ptr %2, align 4
  br label %48

36:                                               ; preds = %28
  br label %19, !llvm.loop !6

37:                                               ; preds = %19
  %38 = getelementptr inbounds %"class.glslang::TInputScanner", ptr %6, i32 0, i32 3
  %39 = load ptr, ptr %38, align 8
  %40 = load i32, ptr %4, align 4
  %41 = sext i32 %40 to i64
  %42 = getelementptr inbounds ptr, ptr %39, i64 %41
  %43 = load ptr, ptr %42, align 8
  %44 = load i64, ptr %5, align 8
  %45 = getelementptr inbounds i8, ptr %43, i64 %44
  %46 = load i8, ptr %45, align 1
  %47 = zext i8 %46 to i32
  store i32 %47, ptr %2, align 4
  br label %48

48:                                               ; preds = %37, %35, %12
  %49 = load i32, ptr %2, align 4
  ret i32 %49
}

; Function Attrs: mustprogress nounwind uwtable
define void @_ZN7glslang13TInputScanner24consumeWhitespaceCommentERb(ptr noundef nonnull align 8 dereferenceable(90) %0, ptr noundef nonnull align 1 dereferenceable(1) %1) #0 align 2 {
  %3 = alloca ptr, align 8
  %4 = alloca ptr, align 8
  %5 = alloca i32, align 4
  store ptr %0, ptr %3, align 8
  store ptr %1, ptr %4, align 8
  %6 = load ptr, ptr %3, align 8
  br label %7

7:                                                ; preds = %21, %2
  %8 = load ptr, ptr %4, align 8
  call void @_ZN7glslang13TInputScanner17consumeWhiteSpaceERb(ptr noundef nonnull align 8 dereferenceable(90) %6, ptr noundef nonnull align 1 dereferenceable(1) %8)
  %9 = call noundef i32 @_ZN7glslang13TInputScanner4peekEv(ptr noundef nonnull align 8 dereferenceable(90) %6)
  store i32 %9, ptr %5, align 4
  %10 = load i32, ptr %5, align 4
  %11 = icmp ne i32 %10, 47
  br i1 %11, label %15, label %12

12:                                               ; preds = %7
  %13 = load i32, ptr %5, align 4
  %14 = icmp eq i32 %13, -1
  br i1 %14, label %15, label %16

15:                                               ; preds = %12, %7
  br label %22

16:                                               ; preds = %12
  %17 = load ptr, ptr %4, align 8
  store i8 1, ptr %17, align 1
  %18 = call noundef zeroext i1 @_ZN7glslang13TInputScanner14consumeCommentEv(ptr noundef nonnull align 8 dereferenceable(90) %6)
  br i1 %18, label %20, label %19

19:                                               ; preds = %16
  br label %22

20:                                               ; preds = %16
  br label %21

21:                                               ; preds = %20
  br i1 true, label %7, label %22, !llvm.loop !14

22:                                               ; preds = %21, %19, %15
  ret void
}