; Function Attrs: mustprogress nounwind uwtable
define void @_ZN7glslang13TInputScanner24consumeWhitespaceCommentERb(ptr noundef nonnull align 8 dereferenceable(90) %0, ptr noundef nonnull writeonly align 1 captures(none) dereferenceable(1) %1) local_unnamed_addr #0 align 2 {
  %3 = getelementptr inbounds nuw i8, ptr %0, i64 32
  %4 = getelementptr inbounds nuw i8, ptr %0, i64 8
  %5 = getelementptr inbounds nuw i8, ptr %0, i64 40
  %6 = getelementptr inbounds nuw i8, ptr %0, i64 24
  %7 = getelementptr inbounds nuw i8, ptr %0, i64 16
  br label %8

8:                                                ; preds = %26, %2
  tail call void @_ZN7glslang13TInputScanner17consumeWhiteSpaceERb(ptr noundef nonnull align 8 dereferenceable(90) %0, ptr noundef nonnull align 1 dereferenceable(1) %1)
  %9 = load i32, ptr %3, align 8
  %10 = load i32, ptr %4, align 8
  %.not.i = icmp slt i32 %9, %10
  br i1 %.not.i, label %13, label %11

11:                                               ; preds = %8
  %12 = getelementptr inbounds nuw i8, ptr %0, i64 89
  store i8 1, ptr %12, align 1
  br label %_ZN7glslang13TInputScanner4peekEv.exit.thread

13:                                               ; preds = %8
  %14 = load i64, ptr %5, align 8
  %15 = load ptr, ptr %6, align 8
  %16 = sext i32 %9 to i64
  %wide.trip.count.i = sext i32 %10 to i64
  br label %17

17:                                               ; preds = %20, %13
  %indvars.iv.i = phi i64 [ %indvars.iv.next.i, %20 ], [ %16, %13 ]
  %.0.i = phi i64 [ 0, %20 ], [ %14, %13 ]
  %18 = getelementptr inbounds i64, ptr %15, i64 %indvars.iv.i
  %19 = load i64, ptr %18, align 8
  %.not11.i = icmp ult i64 %.0.i, %19
  br i1 %.not11.i, label %_ZN7glslang13TInputScanner4peekEv.exit, label %20

20:                                               ; preds = %17
  %indvars.iv.next.i = add nsw i64 %indvars.iv.i, 1
  %exitcond.not.i = icmp eq i64 %indvars.iv.next.i, %wide.trip.count.i
  br i1 %exitcond.not.i, label %_ZN7glslang13TInputScanner4peekEv.exit.thread, label %17, !llvm.loop !4

_ZN7glslang13TInputScanner4peekEv.exit:           ; preds = %17
  %21 = load ptr, ptr %7, align 8
  %22 = getelementptr inbounds ptr, ptr %21, i64 %indvars.iv.i
  %23 = load ptr, ptr %22, align 8
  %24 = getelementptr inbounds i8, ptr %23, i64 %.0.i
  %25 = load i8, ptr %24, align 1
  %.not = icmp eq i8 %25, 47
  br i1 %.not, label %26, label %_ZN7glslang13TInputScanner4peekEv.exit.thread

26:                                               ; preds = %_ZN7glslang13TInputScanner4peekEv.exit
  store i8 1, ptr %1, align 1
  %27 = tail call noundef zeroext i1 @_ZN7glslang13TInputScanner14consumeCommentEv(ptr noundef nonnull align 8 dereferenceable(90) %0)
  br i1 %27, label %8, label %_ZN7glslang13TInputScanner4peekEv.exit.thread, !llvm.loop !12

_ZN7glslang13TInputScanner4peekEv.exit.thread:    ; preds = %26, %_ZN7glslang13TInputScanner4peekEv.exit, %20, %11
  ret void
}